Archive member included to satisfy reference by file (symbol)

/usr/local/Cellar/i686-elf-gcc/13.2.0/lib/gcc/i686-elf/13.2.0/libgcc.a(_udivdi3.o)
                              /Users/goks/Desktop/MyCode/ASM/HydraOS/build/kernel/c/stdio.obj (__udivdi3)
/usr/local/Cellar/i686-elf-gcc/13.2.0/lib/gcc/i686-elf/13.2.0/libgcc.a(_umoddi3.o)
                              /Users/goks/Desktop/MyCode/ASM/HydraOS/build/kernel/c/stdio.obj (__umoddi3)

There are no discarded input sections

Memory Configuration

Name             Origin             Length             Attributes
*default*        0x00000000         0xffffffff

Linker script and memory map

LOAD /Users/goks/Desktop/MyCode/ASM/HydraOS/build/kernel/asm/arch/i686/gdt.obj
LOAD /Users/goks/Desktop/MyCode/ASM/HydraOS/build/kernel/asm/arch/i686/idt.obj
LOAD /Users/goks/Desktop/MyCode/ASM/HydraOS/build/kernel/asm/arch/i686/io.obj
LOAD /Users/goks/Desktop/MyCode/ASM/HydraOS/build/kernel/asm/arch/i686/isr.obj
LOAD /Users/goks/Desktop/MyCode/ASM/HydraOS/build/kernel/c/main.obj
LOAD /Users/goks/Desktop/MyCode/ASM/HydraOS/build/kernel/c/memory.obj
LOAD /Users/goks/Desktop/MyCode/ASM/HydraOS/build/kernel/c/stdio.obj
LOAD /Users/goks/Desktop/MyCode/ASM/HydraOS/build/kernel/c/hal/hal.obj
LOAD /Users/goks/Desktop/MyCode/ASM/HydraOS/build/kernel/c/arch/i686/gdt.obj
LOAD /Users/goks/Desktop/MyCode/ASM/HydraOS/build/kernel/c/arch/i686/idt.obj
LOAD /Users/goks/Desktop/MyCode/ASM/HydraOS/build/kernel/c/arch/i686/io.obj
LOAD /Users/goks/Desktop/MyCode/ASM/HydraOS/build/kernel/c/arch/i686/irq.obj
LOAD /Users/goks/Desktop/MyCode/ASM/HydraOS/build/kernel/c/arch/i686/isr.obj
LOAD /Users/goks/Desktop/MyCode/ASM/HydraOS/build/kernel/c/arch/i686/isrs_gen.obj
LOAD /Users/goks/Desktop/MyCode/ASM/HydraOS/build/kernel/c/arch/i686/i8259.obj
LOAD /usr/local/Cellar/i686-elf-gcc/13.2.0/lib/gcc/i686-elf/13.2.0/libgcc.a
                0x00100000                        phys = 0x100000
                0x00100000                        . = phys

.entry          0x00100000       0x5b
                0x00100000                        __entry_start = .
 *(.entry)
 .entry         0x00100000       0x5b /Users/goks/Desktop/MyCode/ASM/HydraOS/build/kernel/c/main.obj
                0x00100000                start

.text           0x00100060     0x3276
                0x00100060                        __text_start = .
 *(.text)
 .text          0x00100060       0x25 /Users/goks/Desktop/MyCode/ASM/HydraOS/build/kernel/asm/arch/i686/gdt.obj
                0x00100060                i686_GDT_Load
 *fill*         0x00100085        0xb 
 .text          0x00100090        0xd /Users/goks/Desktop/MyCode/ASM/HydraOS/build/kernel/asm/arch/i686/idt.obj
                0x00100090                i686_IDT_Load
 *fill*         0x0010009d        0x3 
 .text          0x001000a0       0x1d /Users/goks/Desktop/MyCode/ASM/HydraOS/build/kernel/asm/arch/i686/io.obj
                0x001000a0                i686_outb
                0x001000ab                i686_inb
                0x001000b4                i686_Panic
                0x001000b6                i686_EnableInterrupts
                0x001000b8                i686_DisableInterrupts
                0x001000ba                crash_me
 *fill*         0x001000bd        0x3 
 .text          0x001000c0      0xa6d /Users/goks/Desktop/MyCode/ASM/HydraOS/build/kernel/asm/arch/i686/isr.obj
                0x001000c0                i686_ISR0
                0x001000c9                i686_ISR1
                0x001000d2                i686_ISR2
                0x001000db                i686_ISR3
                0x001000e4                i686_ISR4
                0x001000ed                i686_ISR5
                0x001000f6                i686_ISR6
                0x001000ff                i686_ISR7
                0x00100108                i686_ISR8
                0x0010010f                i686_ISR9
                0x00100118                i686_ISR10
                0x0010011f                i686_ISR11
                0x00100126                i686_ISR12
                0x0010012d                i686_ISR13
                0x00100134                i686_ISR14
                0x0010013b                i686_ISR15
                0x00100144                i686_ISR16
                0x0010014d                i686_ISR17
                0x00100154                i686_ISR18
                0x0010015d                i686_ISR19
                0x00100166                i686_ISR20
                0x0010016f                i686_ISR21
                0x00100176                i686_ISR22
                0x0010017f                i686_ISR23
                0x00100188                i686_ISR24
                0x00100191                i686_ISR25
                0x0010019a                i686_ISR26
                0x001001a3                i686_ISR27
                0x001001ac                i686_ISR28
                0x001001b5                i686_ISR29
                0x001001be                i686_ISR30
                0x001001c7                i686_ISR31
                0x001001d0                i686_ISR32
                0x001001d9                i686_ISR33
                0x001001e2                i686_ISR34
                0x001001eb                i686_ISR35
                0x001001f4                i686_ISR36
                0x001001fd                i686_ISR37
                0x00100206                i686_ISR38
                0x0010020f                i686_ISR39
                0x00100218                i686_ISR40
                0x00100221                i686_ISR41
                0x0010022a                i686_ISR42
                0x00100233                i686_ISR43
                0x0010023c                i686_ISR44
                0x00100245                i686_ISR45
                0x0010024e                i686_ISR46
                0x00100257                i686_ISR47
                0x00100260                i686_ISR48
                0x00100269                i686_ISR49
                0x00100272                i686_ISR50
                0x0010027b                i686_ISR51
                0x00100284                i686_ISR52
                0x0010028d                i686_ISR53
                0x00100296                i686_ISR54
                0x0010029f                i686_ISR55
                0x001002a8                i686_ISR56
                0x001002b1                i686_ISR57
                0x001002ba                i686_ISR58
                0x001002c3                i686_ISR59
                0x001002cc                i686_ISR60
                0x001002d5                i686_ISR61
                0x001002de                i686_ISR62
                0x001002e7                i686_ISR63
                0x001002f0                i686_ISR64
                0x001002f9                i686_ISR65
                0x00100302                i686_ISR66
                0x0010030b                i686_ISR67
                0x00100314                i686_ISR68
                0x0010031d                i686_ISR69
                0x00100326                i686_ISR70
                0x0010032f                i686_ISR71
                0x00100338                i686_ISR72
                0x00100341                i686_ISR73
                0x0010034a                i686_ISR74
                0x00100353                i686_ISR75
                0x0010035c                i686_ISR76
                0x00100365                i686_ISR77
                0x0010036e                i686_ISR78
                0x00100377                i686_ISR79
                0x00100380                i686_ISR80
                0x00100389                i686_ISR81
                0x00100392                i686_ISR82
                0x0010039b                i686_ISR83
                0x001003a4                i686_ISR84
                0x001003ad                i686_ISR85
                0x001003b6                i686_ISR86
                0x001003bf                i686_ISR87
                0x001003c8                i686_ISR88
                0x001003d1                i686_ISR89
                0x001003da                i686_ISR90
                0x001003e3                i686_ISR91
                0x001003ec                i686_ISR92
                0x001003f5                i686_ISR93
                0x001003fe                i686_ISR94
                0x00100407                i686_ISR95
                0x00100410                i686_ISR96
                0x00100419                i686_ISR97
                0x00100422                i686_ISR98
                0x0010042b                i686_ISR99
                0x00100434                i686_ISR100
                0x0010043d                i686_ISR101
                0x00100446                i686_ISR102
                0x0010044f                i686_ISR103
                0x00100458                i686_ISR104
                0x00100461                i686_ISR105
                0x0010046a                i686_ISR106
                0x00100473                i686_ISR107
                0x0010047c                i686_ISR108
                0x00100485                i686_ISR109
                0x0010048e                i686_ISR110
                0x00100497                i686_ISR111
                0x001004a0                i686_ISR112
                0x001004a9                i686_ISR113
                0x001004b2                i686_ISR114
                0x001004bb                i686_ISR115
                0x001004c4                i686_ISR116
                0x001004cd                i686_ISR117
                0x001004d6                i686_ISR118
                0x001004df                i686_ISR119
                0x001004e8                i686_ISR120
                0x001004f1                i686_ISR121
                0x001004fa                i686_ISR122
                0x00100503                i686_ISR123
                0x0010050c                i686_ISR124
                0x00100515                i686_ISR125
                0x0010051e                i686_ISR126
                0x00100527                i686_ISR127
                0x00100530                i686_ISR128
                0x0010053c                i686_ISR129
                0x00100548                i686_ISR130
                0x00100554                i686_ISR131
                0x00100560                i686_ISR132
                0x0010056c                i686_ISR133
                0x00100578                i686_ISR134
                0x00100584                i686_ISR135
                0x00100590                i686_ISR136
                0x0010059c                i686_ISR137
                0x001005a8                i686_ISR138
                0x001005b4                i686_ISR139
                0x001005c0                i686_ISR140
                0x001005cc                i686_ISR141
                0x001005d8                i686_ISR142
                0x001005e4                i686_ISR143
                0x001005f0                i686_ISR144
                0x001005fc                i686_ISR145
                0x00100608                i686_ISR146
                0x00100614                i686_ISR147
                0x00100620                i686_ISR148
                0x0010062c                i686_ISR149
                0x00100638                i686_ISR150
                0x00100644                i686_ISR151
                0x00100650                i686_ISR152
                0x0010065c                i686_ISR153
                0x00100668                i686_ISR154
                0x00100674                i686_ISR155
                0x00100680                i686_ISR156
                0x0010068c                i686_ISR157
                0x00100698                i686_ISR158
                0x001006a4                i686_ISR159
                0x001006b0                i686_ISR160
                0x001006bc                i686_ISR161
                0x001006c8                i686_ISR162
                0x001006d4                i686_ISR163
                0x001006e0                i686_ISR164
                0x001006ec                i686_ISR165
                0x001006f8                i686_ISR166
                0x00100704                i686_ISR167
                0x00100710                i686_ISR168
                0x0010071c                i686_ISR169
                0x00100728                i686_ISR170
                0x00100734                i686_ISR171
                0x00100740                i686_ISR172
                0x0010074c                i686_ISR173
                0x00100758                i686_ISR174
                0x00100764                i686_ISR175
                0x00100770                i686_ISR176
                0x0010077c                i686_ISR177
                0x00100788                i686_ISR178
                0x00100794                i686_ISR179
                0x001007a0                i686_ISR180
                0x001007ac                i686_ISR181
                0x001007b8                i686_ISR182
                0x001007c4                i686_ISR183
                0x001007d0                i686_ISR184
                0x001007dc                i686_ISR185
                0x001007e8                i686_ISR186
                0x001007f4                i686_ISR187
                0x00100800                i686_ISR188
                0x0010080c                i686_ISR189
                0x00100818                i686_ISR190
                0x00100824                i686_ISR191
                0x00100830                i686_ISR192
                0x0010083c                i686_ISR193
                0x00100848                i686_ISR194
                0x00100854                i686_ISR195
                0x00100860                i686_ISR196
                0x0010086c                i686_ISR197
                0x00100878                i686_ISR198
                0x00100884                i686_ISR199
                0x00100890                i686_ISR200
                0x0010089c                i686_ISR201
                0x001008a8                i686_ISR202
                0x001008b4                i686_ISR203
                0x001008c0                i686_ISR204
                0x001008cc                i686_ISR205
                0x001008d8                i686_ISR206
                0x001008e4                i686_ISR207
                0x001008f0                i686_ISR208
                0x001008fc                i686_ISR209
                0x00100908                i686_ISR210
                0x00100914                i686_ISR211
                0x00100920                i686_ISR212
                0x0010092c                i686_ISR213
                0x00100938                i686_ISR214
                0x00100944                i686_ISR215
                0x00100950                i686_ISR216
                0x0010095c                i686_ISR217
                0x00100968                i686_ISR218
                0x00100974                i686_ISR219
                0x00100980                i686_ISR220
                0x0010098c                i686_ISR221
                0x00100998                i686_ISR222
                0x001009a4                i686_ISR223
                0x001009b0                i686_ISR224
                0x001009bc                i686_ISR225
                0x001009c8                i686_ISR226
                0x001009d4                i686_ISR227
                0x001009e0                i686_ISR228
                0x001009ec                i686_ISR229
                0x001009f8                i686_ISR230
                0x00100a04                i686_ISR231
                0x00100a10                i686_ISR232
                0x00100a1c                i686_ISR233
                0x00100a28                i686_ISR234
                0x00100a34                i686_ISR235
                0x00100a40                i686_ISR236
                0x00100a4c                i686_ISR237
                0x00100a58                i686_ISR238
                0x00100a64                i686_ISR239
                0x00100a70                i686_ISR240
                0x00100a7c                i686_ISR241
                0x00100a85                i686_ISR242
                0x00100a8e                i686_ISR243
                0x00100a97                i686_ISR244
                0x00100aa0                i686_ISR245
                0x00100aa9                i686_ISR246
                0x00100ab2                i686_ISR247
                0x00100abb                i686_ISR248
                0x00100ac4                i686_ISR249
                0x00100acd                i686_ISR250
                0x00100ad6                i686_ISR251
                0x00100adf                i686_ISR252
                0x00100ae8                i686_ISR253
                0x00100af1                i686_ISR254
                0x00100afa                i686_ISR255
 .text          0x00100b2d       0x19 /Users/goks/Desktop/MyCode/ASM/HydraOS/build/kernel/c/main.obj
                0x00100b2d                timer
 .text          0x00100b46       0xf5 /Users/goks/Desktop/MyCode/ASM/HydraOS/build/kernel/c/memory.obj
                0x00100b46                memcpy
                0x00100b98                memset
                0x00100bdb                memcmp
 .text          0x00100c3b      0x883 /Users/goks/Desktop/MyCode/ASM/HydraOS/build/kernel/c/stdio.obj
                0x00100c3b                putchr
                0x00100c6a                putcolor
                0x00100c9c                getchr
                0x00100cbe                getcolor
                0x00100ce3                setcursor
                0x00100d54                clrscr
                0x00100de2                scrollback
                0x00100ed0                putc
                0x00100fe0                puts
                0x0010100f                printf_unsigned
                0x001010b3                printf_signed
                0x00101110                printf
                0x00101425                print_buffer
 .text          0x001014be       0x1d /Users/goks/Desktop/MyCode/ASM/HydraOS/build/kernel/c/hal/hal.obj
                0x001014be                HAL_Initialize
 .text          0x001014db       0x1d /Users/goks/Desktop/MyCode/ASM/HydraOS/build/kernel/c/arch/i686/gdt.obj
                0x001014db                i686_GDT_Initialize
 .text          0x001014f8       0xba /Users/goks/Desktop/MyCode/ASM/HydraOS/build/kernel/c/arch/i686/idt.obj
                0x001014f8                i686_IDT_SetGate
                0x00101559                i686_IDT_EnableGate
                0x00101579                i686_IDT_DisableGate
                0x00101599                i686_IDT_Initialize
 .text          0x001015b2       0x1b /Users/goks/Desktop/MyCode/ASM/HydraOS/build/kernel/c/arch/i686/io.obj
                0x001015b2                i686_iowait
 .text          0x001015cd      0x168 /Users/goks/Desktop/MyCode/ASM/HydraOS/build/kernel/c/arch/i686/irq.obj
                0x001015cd                i686_IRQ_Handler
                0x00101644                i686_IRQ_Initialize
                0x00101722                i686_IRQ_RegisterHandler
 .text          0x00101735      0x1a1 /Users/goks/Desktop/MyCode/ASM/HydraOS/build/kernel/c/arch/i686/isr.obj
                0x00101735                i686_ISR_Initialize
                0x00101777                i686_ISR_Handler
                0x001018b2                i686_ISR_RegisterHandler
 .text          0x001018d6     0x1489 /Users/goks/Desktop/MyCode/ASM/HydraOS/build/kernel/c/arch/i686/isrs_gen.obj
                0x001018d6                i686_ISR_InitializeGates
 .text          0x00102d5f      0x320 /Users/goks/Desktop/MyCode/ASM/HydraOS/build/kernel/c/arch/i686/i8259.obj
                0x00102d5f                i8259_SetMask
                0x00102dba                i8259_GetMask
                0x00102dee                i8259_Configure
                0x00102eef                i8259_SendEndOfInterrupt
                0x00102f1f                i8259_Disable
                0x00102f38                i8259_Mask
                0x00102f69                i8259_Unmask
                0x00102f9c                i8259_ReadIrqRequestRegister
                0x00102ff4                i8259_ReadInServiceRegister
                0x0010304c                i8259_Probe
                0x00103075                i8259_GetDriver
 *fill*         0x0010307f        0x1 
 .text          0x00103080      0x11a /usr/local/Cellar/i686-elf-gcc/13.2.0/lib/gcc/i686-elf/13.2.0/libgcc.a(_udivdi3.o)
                0x00103080                __udivdi3
 *fill*         0x0010319a        0x6 
 .text          0x001031a0      0x136 /usr/local/Cellar/i686-elf-gcc/13.2.0/lib/gcc/i686-elf/13.2.0/libgcc.a(_umoddi3.o)
                0x001031a0                __umoddi3

.data           0x001032d8       0x2c
                0x001032d8                        __data_start = .
 *(.data)
 .data          0x001032d8        0x0 /Users/goks/Desktop/MyCode/ASM/HydraOS/build/kernel/c/main.obj
 .data          0x001032d8        0x0 /Users/goks/Desktop/MyCode/ASM/HydraOS/build/kernel/c/memory.obj
 .data          0x001032d8        0x4 /Users/goks/Desktop/MyCode/ASM/HydraOS/build/kernel/c/stdio.obj
                0x001032d8                g_ScreenBuffer
 .data          0x001032dc        0x0 /Users/goks/Desktop/MyCode/ASM/HydraOS/build/kernel/c/hal/hal.obj
 .data          0x001032dc       0x1e /Users/goks/Desktop/MyCode/ASM/HydraOS/build/kernel/c/arch/i686/gdt.obj
                0x001032dc                g_GDT
                0x001032f4                g_GDTDescriptor
 *fill*         0x001032fa        0x2 
 .data          0x001032fc        0x6 /Users/goks/Desktop/MyCode/ASM/HydraOS/build/kernel/c/arch/i686/idt.obj
                0x001032fc                g_IDTDescriptor
 .data          0x00103302        0x0 /Users/goks/Desktop/MyCode/ASM/HydraOS/build/kernel/c/arch/i686/io.obj
 .data          0x00103302        0x0 /Users/goks/Desktop/MyCode/ASM/HydraOS/build/kernel/c/arch/i686/irq.obj
 .data          0x00103302        0x0 /Users/goks/Desktop/MyCode/ASM/HydraOS/build/kernel/c/arch/i686/isr.obj
 .data          0x00103302        0x0 /Users/goks/Desktop/MyCode/ASM/HydraOS/build/kernel/c/arch/i686/isrs_gen.obj
 .data          0x00103302        0x2 /Users/goks/Desktop/MyCode/ASM/HydraOS/build/kernel/c/arch/i686/i8259.obj
 .data          0x00103304        0x0 /usr/local/Cellar/i686-elf-gcc/13.2.0/lib/gcc/i686-elf/13.2.0/libgcc.a(_udivdi3.o)
 .data          0x00103304        0x0 /usr/local/Cellar/i686-elf-gcc/13.2.0/lib/gcc/i686-elf/13.2.0/libgcc.a(_umoddi3.o)

.rodata         0x00103320      0x498
                0x00103320                        __rodata_start = .
 *(.rodata)
 .rodata        0x00103320       0x16 /Users/goks/Desktop/MyCode/ASM/HydraOS/build/kernel/c/main.obj
 *fill*         0x00103336        0x2 
 .rodata        0x00103338       0xba /Users/goks/Desktop/MyCode/ASM/HydraOS/build/kernel/c/stdio.obj
                0x00103338                SCREEN_WIDTH
                0x0010333c                SCREEN_HEIGHT
                0x00103340                DEFAULT_COLOR
                0x00103344                g_HexChars
 .rodata        0x001033f2       0x33 /Users/goks/Desktop/MyCode/ASM/HydraOS/build/kernel/c/arch/i686/irq.obj
 *fill*         0x00103425       0x1b 
 .rodata        0x00103440      0x34f /Users/goks/Desktop/MyCode/ASM/HydraOS/build/kernel/c/arch/i686/isr.obj
 *fill*         0x0010378f        0x1 
 .rodata        0x00103790       0x28 /Users/goks/Desktop/MyCode/ASM/HydraOS/build/kernel/c/arch/i686/i8259.obj

.eh_frame       0x001037b8       0xd8
 .eh_frame      0x001037b8       0x64 /usr/local/Cellar/i686-elf-gcc/13.2.0/lib/gcc/i686-elf/13.2.0/libgcc.a(_udivdi3.o)
 .eh_frame      0x0010381c       0x74 /usr/local/Cellar/i686-elf-gcc/13.2.0/lib/gcc/i686-elf/13.2.0/libgcc.a(_umoddi3.o)

.bss            0x001038a0      0xc8d
                0x001038a0                        __bss_start = .
 *(.bss)
 .bss           0x001038a0        0x0 /Users/goks/Desktop/MyCode/ASM/HydraOS/build/kernel/c/main.obj
 .bss           0x001038a0        0x0 /Users/goks/Desktop/MyCode/ASM/HydraOS/build/kernel/c/memory.obj
 .bss           0x001038a0        0x8 /Users/goks/Desktop/MyCode/ASM/HydraOS/build/kernel/c/stdio.obj
                0x001038a0                g_ScreenX
                0x001038a4                g_ScreenY
 .bss           0x001038a8        0x0 /Users/goks/Desktop/MyCode/ASM/HydraOS/build/kernel/c/hal/hal.obj
 .bss           0x001038a8        0x0 /Users/goks/Desktop/MyCode/ASM/HydraOS/build/kernel/c/arch/i686/gdt.obj
 *fill*         0x001038a8       0x18 
 .bss           0x001038c0      0x800 /Users/goks/Desktop/MyCode/ASM/HydraOS/build/kernel/c/arch/i686/idt.obj
                0x001038c0                g_IDT
 .bss           0x001040c0        0x0 /Users/goks/Desktop/MyCode/ASM/HydraOS/build/kernel/c/arch/i686/io.obj
 .bss           0x001040c0       0x44 /Users/goks/Desktop/MyCode/ASM/HydraOS/build/kernel/c/arch/i686/irq.obj
                0x001040c0                g_IRQHandlers
 *fill*         0x00104104       0x1c 
 .bss           0x00104120      0x400 /Users/goks/Desktop/MyCode/ASM/HydraOS/build/kernel/c/arch/i686/isr.obj
                0x00104120                g_ISRHandlers
 .bss           0x00104520        0x0 /Users/goks/Desktop/MyCode/ASM/HydraOS/build/kernel/c/arch/i686/isrs_gen.obj
 .bss           0x00104520        0xd /Users/goks/Desktop/MyCode/ASM/HydraOS/build/kernel/c/arch/i686/i8259.obj
                0x00104520                PIC_ICW1
                0x00104524                PIC_ICW4
                0x00104528                PIC_CMD
 .bss           0x0010452d        0x0 /usr/local/Cellar/i686-elf-gcc/13.2.0/lib/gcc/i686-elf/13.2.0/libgcc.a(_udivdi3.o)
 .bss           0x0010452d        0x0 /usr/local/Cellar/i686-elf-gcc/13.2.0/lib/gcc/i686-elf/13.2.0/libgcc.a(_umoddi3.o)
                0x0010452d                        __end = .
OUTPUT(/Users/goks/Desktop/MyCode/ASM/HydraOS/build/kernel.bin binary)

.debug_info     0x00000000     0x2d11
 .debug_info    0x00000000      0x25e /Users/goks/Desktop/MyCode/ASM/HydraOS/build/kernel/c/main.obj
 .debug_info    0x0000025e      0x1e8 /Users/goks/Desktop/MyCode/ASM/HydraOS/build/kernel/c/memory.obj
 .debug_info    0x00000446      0x54c /Users/goks/Desktop/MyCode/ASM/HydraOS/build/kernel/c/stdio.obj
 .debug_info    0x00000992       0xb3 /Users/goks/Desktop/MyCode/ASM/HydraOS/build/kernel/c/hal/hal.obj
 .debug_info    0x00000a45      0x1fa /Users/goks/Desktop/MyCode/ASM/HydraOS/build/kernel/c/arch/i686/gdt.obj
 .debug_info    0x00000c3f      0x24e /Users/goks/Desktop/MyCode/ASM/HydraOS/build/kernel/c/arch/i686/idt.obj
 .debug_info    0x00000e8d       0xac /Users/goks/Desktop/MyCode/ASM/HydraOS/build/kernel/c/arch/i686/io.obj
 .debug_info    0x00000f39      0x407 /Users/goks/Desktop/MyCode/ASM/HydraOS/build/kernel/c/arch/i686/irq.obj
 .debug_info    0x00001340      0x29c /Users/goks/Desktop/MyCode/ASM/HydraOS/build/kernel/c/arch/i686/isr.obj
 .debug_info    0x000015dc      0xd09 /Users/goks/Desktop/MyCode/ASM/HydraOS/build/kernel/c/arch/i686/isrs_gen.obj
 .debug_info    0x000022e5      0x3bd /Users/goks/Desktop/MyCode/ASM/HydraOS/build/kernel/c/arch/i686/i8259.obj
 .debug_info    0x000026a2      0x32c /usr/local/Cellar/i686-elf-gcc/13.2.0/lib/gcc/i686-elf/13.2.0/libgcc.a(_udivdi3.o)
 .debug_info    0x000029ce      0x343 /usr/local/Cellar/i686-elf-gcc/13.2.0/lib/gcc/i686-elf/13.2.0/libgcc.a(_umoddi3.o)

.debug_abbrev   0x00000000      0xf38
 .debug_abbrev  0x00000000      0x145 /Users/goks/Desktop/MyCode/ASM/HydraOS/build/kernel/c/main.obj
 .debug_abbrev  0x00000145       0xe2 /Users/goks/Desktop/MyCode/ASM/HydraOS/build/kernel/c/memory.obj
 .debug_abbrev  0x00000227      0x1f6 /Users/goks/Desktop/MyCode/ASM/HydraOS/build/kernel/c/stdio.obj
 .debug_abbrev  0x0000041d       0x5a /Users/goks/Desktop/MyCode/ASM/HydraOS/build/kernel/c/hal/hal.obj
 .debug_abbrev  0x00000477       0xf0 /Users/goks/Desktop/MyCode/ASM/HydraOS/build/kernel/c/arch/i686/gdt.obj
 .debug_abbrev  0x00000567      0x122 /Users/goks/Desktop/MyCode/ASM/HydraOS/build/kernel/c/arch/i686/idt.obj
 .debug_abbrev  0x00000689       0x6d /Users/goks/Desktop/MyCode/ASM/HydraOS/build/kernel/c/arch/i686/io.obj
 .debug_abbrev  0x000006f6      0x1ad /Users/goks/Desktop/MyCode/ASM/HydraOS/build/kernel/c/arch/i686/irq.obj
 .debug_abbrev  0x000008a3      0x150 /Users/goks/Desktop/MyCode/ASM/HydraOS/build/kernel/c/arch/i686/isr.obj
 .debug_abbrev  0x000009f3       0xbf /Users/goks/Desktop/MyCode/ASM/HydraOS/build/kernel/c/arch/i686/isrs_gen.obj
 .debug_abbrev  0x00000ab2      0x1ba /Users/goks/Desktop/MyCode/ASM/HydraOS/build/kernel/c/arch/i686/i8259.obj
 .debug_abbrev  0x00000c6c      0x15b /usr/local/Cellar/i686-elf-gcc/13.2.0/lib/gcc/i686-elf/13.2.0/libgcc.a(_udivdi3.o)
 .debug_abbrev  0x00000dc7      0x171 /usr/local/Cellar/i686-elf-gcc/13.2.0/lib/gcc/i686-elf/13.2.0/libgcc.a(_umoddi3.o)

.debug_aranges  0x00000000      0x1a8
 .debug_aranges
                0x00000000       0x28 /Users/goks/Desktop/MyCode/ASM/HydraOS/build/kernel/c/main.obj
 .debug_aranges
                0x00000028       0x20 /Users/goks/Desktop/MyCode/ASM/HydraOS/build/kernel/c/memory.obj
 .debug_aranges
                0x00000048       0x20 /Users/goks/Desktop/MyCode/ASM/HydraOS/build/kernel/c/stdio.obj
 .debug_aranges
                0x00000068       0x20 /Users/goks/Desktop/MyCode/ASM/HydraOS/build/kernel/c/hal/hal.obj
 .debug_aranges
                0x00000088       0x20 /Users/goks/Desktop/MyCode/ASM/HydraOS/build/kernel/c/arch/i686/gdt.obj
 .debug_aranges
                0x000000a8       0x20 /Users/goks/Desktop/MyCode/ASM/HydraOS/build/kernel/c/arch/i686/idt.obj
 .debug_aranges
                0x000000c8       0x20 /Users/goks/Desktop/MyCode/ASM/HydraOS/build/kernel/c/arch/i686/io.obj
 .debug_aranges
                0x000000e8       0x20 /Users/goks/Desktop/MyCode/ASM/HydraOS/build/kernel/c/arch/i686/irq.obj
 .debug_aranges
                0x00000108       0x20 /Users/goks/Desktop/MyCode/ASM/HydraOS/build/kernel/c/arch/i686/isr.obj
 .debug_aranges
                0x00000128       0x20 /Users/goks/Desktop/MyCode/ASM/HydraOS/build/kernel/c/arch/i686/isrs_gen.obj
 .debug_aranges
                0x00000148       0x20 /Users/goks/Desktop/MyCode/ASM/HydraOS/build/kernel/c/arch/i686/i8259.obj
 .debug_aranges
                0x00000168       0x20 /usr/local/Cellar/i686-elf-gcc/13.2.0/lib/gcc/i686-elf/13.2.0/libgcc.a(_udivdi3.o)
 .debug_aranges
                0x00000188       0x20 /usr/local/Cellar/i686-elf-gcc/13.2.0/lib/gcc/i686-elf/13.2.0/libgcc.a(_umoddi3.o)

.debug_rnglists
                0x00000000       0x62
 .debug_rnglists
                0x00000000       0x19 /Users/goks/Desktop/MyCode/ASM/HydraOS/build/kernel/c/main.obj
 .debug_rnglists
                0x00000019       0x2a /usr/local/Cellar/i686-elf-gcc/13.2.0/lib/gcc/i686-elf/13.2.0/libgcc.a(_udivdi3.o)
 .debug_rnglists
                0x00000043       0x1f /usr/local/Cellar/i686-elf-gcc/13.2.0/lib/gcc/i686-elf/13.2.0/libgcc.a(_umoddi3.o)

.debug_line     0x00000000      0xf8d
 .debug_line    0x00000000       0x95 /Users/goks/Desktop/MyCode/ASM/HydraOS/build/kernel/c/main.obj
 .debug_line    0x00000095       0xcc /Users/goks/Desktop/MyCode/ASM/HydraOS/build/kernel/c/memory.obj
 .debug_line    0x00000161      0x396 /Users/goks/Desktop/MyCode/ASM/HydraOS/build/kernel/c/stdio.obj
 .debug_line    0x000004f7       0x6a /Users/goks/Desktop/MyCode/ASM/HydraOS/build/kernel/c/hal/hal.obj
 .debug_line    0x00000561       0x5c /Users/goks/Desktop/MyCode/ASM/HydraOS/build/kernel/c/arch/i686/gdt.obj
 .debug_line    0x000005bd       0x89 /Users/goks/Desktop/MyCode/ASM/HydraOS/build/kernel/c/arch/i686/idt.obj
 .debug_line    0x00000646       0x5e /Users/goks/Desktop/MyCode/ASM/HydraOS/build/kernel/c/arch/i686/io.obj
 .debug_line    0x000006a4      0x123 /Users/goks/Desktop/MyCode/ASM/HydraOS/build/kernel/c/arch/i686/irq.obj
 .debug_line    0x000007c7       0xd8 /Users/goks/Desktop/MyCode/ASM/HydraOS/build/kernel/c/arch/i686/isr.obj
 .debug_line    0x0000089f      0x25f /Users/goks/Desktop/MyCode/ASM/HydraOS/build/kernel/c/arch/i686/isrs_gen.obj
 .debug_line    0x00000afe      0x13e /Users/goks/Desktop/MyCode/ASM/HydraOS/build/kernel/c/arch/i686/i8259.obj
 .debug_line    0x00000c3c      0x180 /usr/local/Cellar/i686-elf-gcc/13.2.0/lib/gcc/i686-elf/13.2.0/libgcc.a(_udivdi3.o)
 .debug_line    0x00000dbc      0x1d1 /usr/local/Cellar/i686-elf-gcc/13.2.0/lib/gcc/i686-elf/13.2.0/libgcc.a(_umoddi3.o)

.debug_str      0x00000000     0x257b
 .debug_str     0x00000000      0x18c /Users/goks/Desktop/MyCode/ASM/HydraOS/build/kernel/c/main.obj
 .debug_str     0x0000018c      0x125 /Users/goks/Desktop/MyCode/ASM/HydraOS/build/kernel/c/memory.obj
 .debug_str     0x000002b1      0x24f /Users/goks/Desktop/MyCode/ASM/HydraOS/build/kernel/c/stdio.obj
 .debug_str     0x00000500      0x12e /Users/goks/Desktop/MyCode/ASM/HydraOS/build/kernel/c/hal/hal.obj
 .debug_str     0x0000062e      0x2fa /Users/goks/Desktop/MyCode/ASM/HydraOS/build/kernel/c/arch/i686/gdt.obj
 .debug_str     0x00000928      0x291 /Users/goks/Desktop/MyCode/ASM/HydraOS/build/kernel/c/arch/i686/idt.obj
 .debug_str     0x00000bb9       0xf6 /Users/goks/Desktop/MyCode/ASM/HydraOS/build/kernel/c/arch/i686/io.obj
 .debug_str     0x00000caf      0x26a /Users/goks/Desktop/MyCode/ASM/HydraOS/build/kernel/c/arch/i686/irq.obj
 .debug_str     0x00000f19      0x1cb /Users/goks/Desktop/MyCode/ASM/HydraOS/build/kernel/c/arch/i686/isr.obj
 .debug_str     0x000010e4      0xd5e /Users/goks/Desktop/MyCode/ASM/HydraOS/build/kernel/c/arch/i686/isrs_gen.obj
 .debug_str     0x00001e42      0x373 /Users/goks/Desktop/MyCode/ASM/HydraOS/build/kernel/c/arch/i686/i8259.obj
 .debug_str     0x000021b5      0x1e3 /usr/local/Cellar/i686-elf-gcc/13.2.0/lib/gcc/i686-elf/13.2.0/libgcc.a(_udivdi3.o)
 .debug_str     0x00002398      0x1e3 /usr/local/Cellar/i686-elf-gcc/13.2.0/lib/gcc/i686-elf/13.2.0/libgcc.a(_umoddi3.o)

.debug_line_str
                0x00000000      0xbe7
 .debug_line_str
                0x00000000      0x101 /Users/goks/Desktop/MyCode/ASM/HydraOS/build/kernel/c/main.obj
 .debug_line_str
                0x00000101       0xd2 /Users/goks/Desktop/MyCode/ASM/HydraOS/build/kernel/c/memory.obj
 .debug_line_str
                0x000001d3       0xe9 /Users/goks/Desktop/MyCode/ASM/HydraOS/build/kernel/c/stdio.obj
 .debug_line_str
                0x000002bc       0xa2 /Users/goks/Desktop/MyCode/ASM/HydraOS/build/kernel/c/hal/hal.obj
 .debug_line_str
                0x0000035e       0xdd /Users/goks/Desktop/MyCode/ASM/HydraOS/build/kernel/c/arch/i686/gdt.obj
 .debug_line_str
                0x0000043b       0xe3 /Users/goks/Desktop/MyCode/ASM/HydraOS/build/kernel/c/arch/i686/idt.obj
 .debug_line_str
                0x0000051e       0xdf /Users/goks/Desktop/MyCode/ASM/HydraOS/build/kernel/c/arch/i686/io.obj
 .debug_line_str
                0x000005fd      0x106 /Users/goks/Desktop/MyCode/ASM/HydraOS/build/kernel/c/arch/i686/irq.obj
 .debug_line_str
                0x00000703       0xf8 /Users/goks/Desktop/MyCode/ASM/HydraOS/build/kernel/c/arch/i686/isr.obj
 .debug_line_str
                0x000007fb       0xf2 /Users/goks/Desktop/MyCode/ASM/HydraOS/build/kernel/c/arch/i686/isrs_gen.obj
 .debug_line_str
                0x000008ed       0xee /Users/goks/Desktop/MyCode/ASM/HydraOS/build/kernel/c/arch/i686/i8259.obj
 .debug_line_str
                0x000009db      0x106 /usr/local/Cellar/i686-elf-gcc/13.2.0/lib/gcc/i686-elf/13.2.0/libgcc.a(_udivdi3.o)
 .debug_line_str
                0x00000ae1      0x106 /usr/local/Cellar/i686-elf-gcc/13.2.0/lib/gcc/i686-elf/13.2.0/libgcc.a(_umoddi3.o)

.comment        0x00000000       0xf7
 .comment       0x00000000       0x13 /Users/goks/Desktop/MyCode/ASM/HydraOS/build/kernel/c/main.obj
 .comment       0x00000013       0x13 /Users/goks/Desktop/MyCode/ASM/HydraOS/build/kernel/c/memory.obj
 .comment       0x00000026       0x13 /Users/goks/Desktop/MyCode/ASM/HydraOS/build/kernel/c/stdio.obj
 .comment       0x00000039       0x13 /Users/goks/Desktop/MyCode/ASM/HydraOS/build/kernel/c/hal/hal.obj
 .comment       0x0000004c       0x13 /Users/goks/Desktop/MyCode/ASM/HydraOS/build/kernel/c/arch/i686/gdt.obj
 .comment       0x0000005f       0x13 /Users/goks/Desktop/MyCode/ASM/HydraOS/build/kernel/c/arch/i686/idt.obj
 .comment       0x00000072       0x13 /Users/goks/Desktop/MyCode/ASM/HydraOS/build/kernel/c/arch/i686/io.obj
 .comment       0x00000085       0x13 /Users/goks/Desktop/MyCode/ASM/HydraOS/build/kernel/c/arch/i686/irq.obj
 .comment       0x00000098       0x13 /Users/goks/Desktop/MyCode/ASM/HydraOS/build/kernel/c/arch/i686/isr.obj
 .comment       0x000000ab       0x13 /Users/goks/Desktop/MyCode/ASM/HydraOS/build/kernel/c/arch/i686/isrs_gen.obj
 .comment       0x000000be       0x13 /Users/goks/Desktop/MyCode/ASM/HydraOS/build/kernel/c/arch/i686/i8259.obj
 .comment       0x000000d1       0x13 /usr/local/Cellar/i686-elf-gcc/13.2.0/lib/gcc/i686-elf/13.2.0/libgcc.a(_udivdi3.o)
 .comment       0x000000e4       0x13 /usr/local/Cellar/i686-elf-gcc/13.2.0/lib/gcc/i686-elf/13.2.0/libgcc.a(_umoddi3.o)

.debug_frame    0x00000000      0x650
 .debug_frame   0x00000000       0x4c /Users/goks/Desktop/MyCode/ASM/HydraOS/build/kernel/c/main.obj
 .debug_frame   0x0000004c       0x74 /Users/goks/Desktop/MyCode/ASM/HydraOS/build/kernel/c/memory.obj
 .debug_frame   0x000000c0      0x1b8 /Users/goks/Desktop/MyCode/ASM/HydraOS/build/kernel/c/stdio.obj
 .debug_frame   0x00000278       0x34 /Users/goks/Desktop/MyCode/ASM/HydraOS/build/kernel/c/hal/hal.obj
 .debug_frame   0x000002ac       0x34 /Users/goks/Desktop/MyCode/ASM/HydraOS/build/kernel/c/arch/i686/gdt.obj
 .debug_frame   0x000002e0       0x94 /Users/goks/Desktop/MyCode/ASM/HydraOS/build/kernel/c/arch/i686/idt.obj
 .debug_frame   0x00000374       0x34 /Users/goks/Desktop/MyCode/ASM/HydraOS/build/kernel/c/arch/i686/io.obj
 .debug_frame   0x000003a8       0x74 /Users/goks/Desktop/MyCode/ASM/HydraOS/build/kernel/c/arch/i686/irq.obj
 .debug_frame   0x0000041c       0x80 /Users/goks/Desktop/MyCode/ASM/HydraOS/build/kernel/c/arch/i686/isr.obj
 .debug_frame   0x0000049c       0x34 /Users/goks/Desktop/MyCode/ASM/HydraOS/build/kernel/c/arch/i686/isrs_gen.obj
 .debug_frame   0x000004d0      0x180 /Users/goks/Desktop/MyCode/ASM/HydraOS/build/kernel/c/arch/i686/i8259.obj

.debug_loclists
                0x00000000      0x978
 .debug_loclists
                0x00000000      0x50c /usr/local/Cellar/i686-elf-gcc/13.2.0/lib/gcc/i686-elf/13.2.0/libgcc.a(_udivdi3.o)
 .debug_loclists
                0x0000050c      0x46c /usr/local/Cellar/i686-elf-gcc/13.2.0/lib/gcc/i686-elf/13.2.0/libgcc.a(_umoddi3.o)
